target datalayout = "e-m:e-p270:32:32-p271:32:32-p272:64:64-i64:64-i128:128-f80:128-n8:16:32:64-S128"
target triple = "x86_64-pc-linux-gnu"

%class.G1CardSet = type { ptr, ptr, ptr, ptr, i64 }

; Function Attrs: mustprogress nounwind uwtable
define hidden noundef i32 @_ZNK9G1CardSet33container_type_to_mem_object_typeEm(ptr noundef nonnull align 8 dereferenceable(40) %0, i64 noundef %1) #1 align 2 {
  %3 = alloca ptr, align 8
  %4 = alloca i64, align 8
  store ptr %0, ptr %3, align 8
  store i64 %1, ptr %4, align 8
  %5 = load i64, ptr %4, align 8
  %6 = trunc i64 %5 to i32
  ret i32 %6
}

; Function Attrs: mustprogress nounwind uwtable
define linkonce_odr hidden noundef ptr @_ZN9G1CardSet20strip_container_typeEPv(ptr noundef %0) #1 comdat align 2 {
  %2 = alloca ptr, align 8
  store ptr %0, ptr %2, align 8
  %3 = load ptr, ptr %2, align 8
  %4 = ptrtoint ptr %3 to i64
  %5 = and i64 %4, -4
  %6 = inttoptr i64 %5 to ptr
  ret ptr %6
}

; Function Attrs: mustprogress nounwind uwtable
define linkonce_odr hidden noundef i32 @_ZN9G1CardSet14container_typeEPv(ptr noundef %0) #1 comdat align 2 {
  %2 = alloca ptr, align 8
  store ptr %0, ptr %2, align 8
  %3 = load ptr, ptr %2, align 8
  %4 = ptrtoint ptr %3 to i64
  %5 = and i64 %4, 3
  %6 = trunc i64 %5 to i32
  ret i32 %6
}

; Function Attrs: mustprogress nounwind uwtable
define hidden void @_ZN9G1CardSet15free_mem_objectEPv(ptr noundef nonnull align 8 dereferenceable(40) %0, ptr noundef %1) #1 align 2 {
  %3 = alloca ptr, align 8
  %4 = alloca ptr, align 8
  %5 = alloca i64, align 8
  %6 = alloca ptr, align 8
  store ptr %0, ptr %3, align 8
  store ptr %1, ptr %4, align 8
  %7 = load ptr, ptr %3, align 8
  %8 = load ptr, ptr %4, align 8
  %9 = call noundef i32 @_ZN9G1CardSet14container_typeEPv(ptr noundef %8)
  %10 = zext i32 %9 to i64
  store i64 %10, ptr %5, align 8
  %11 = load ptr, ptr %4, align 8
  %12 = call noundef ptr @_ZN9G1CardSet20strip_container_typeEPv(ptr noundef %11)
  store ptr %12, ptr %6, align 8
  %13 = getelementptr inbounds %class.G1CardSet, ptr %7, i32 0, i32 1
  %14 = load ptr, ptr %13, align 8
  %15 = load i64, ptr %5, align 8
  %16 = call noundef i32 @_ZNK9G1CardSet33container_type_to_mem_object_typeEm(ptr noundef nonnull align 8 dereferenceable(40) %7, i64 noundef %15)
  %17 = load ptr, ptr %6, align 8
  call void @_ZN22G1CardSetMemoryManager4freeEjPv(ptr noundef nonnull align 8 dereferenceable(24) %14, i32 noundef %16, ptr noundef %17)
  ret void
}