; Function Attrs: mustprogress nounwind uwtable
define hidden void @_ZN9G1CardSet15free_mem_objectEPv(ptr nocapture noundef nonnull readonly align 8 dereferenceable(40) %0, ptr noundef %1) local_unnamed_addr #1 align 2 {
  %3 = ptrtoint ptr %1 to i64
  %4 = trunc i64 %3 to i32
  %5 = and i32 %4, 3
  %6 = and i64 %3, -4
  %7 = inttoptr i64 %6 to ptr
  %8 = getelementptr inbounds i8, ptr %0, i64 8
  %9 = load ptr, ptr %8, align 8
  tail call void @_ZN22G1CardSetMemoryManager4freeEjPv(ptr noundef nonnull align 8 dereferenceable(24) %9, i32 noundef %5, ptr noundef %7) #19
  ret void
}